(i__main__
Grid
p0
(dp1
S'rows'
p2
I50
sS'grid'
p3
(lp4
(lp5
S' '
p6
ag6
ag6
ag6
ag6
ag6
ag6
ag6
ag6
ag6
ag6
ag6
ag6
ag6
ag6
ag6
ag6
ag6
ag6
ag6
ag6
ag6
ag6
ag6
ag6
ag6
ag6
ag6
ag6
ag6
ag6
ag6
ag6
ag6
ag6
ag6
ag6
ag6
ag6
ag6
ag6
ag6
ag6
ag6
ag6
ag6
ag6
ag6
ag6
ag6
ag6
ag6
ag6
ag6
ag6
ag6
ag6
ag6
ag6
ag6
ag6
ag6
ag6
ag6
ag6
ag6
ag6
ag6
ag6
ag6
ag6
ag6
ag6
ag6
ag6
ag6
ag6
ag6
ag6
ag6
ag6
ag6
ag6
ag6
ag6
ag6
ag6
ag6
ag6
ag6
ag6
ag6
ag6
ag6
ag6
ag6
ag6
ag6
ag6
ag6
aa(lp7
g6
ag6
ag6
ag6
ag6
ag6
ag6
ag6
ag6
ag6
ag6
ag6
ag6
ag6
ag6
ag6
ag6
ag6
ag6
ag6
ag6
ag6
ag6
ag6
ag6
ag6
ag6
ag6
ag6
ag6
ag6
ag6
ag6
ag6
ag6
ag6
ag6
ag6
ag6
ag6
ag6
ag6
ag6
ag6
ag6
ag6
ag6
ag6
ag6
ag6
ag6
ag6
ag6
ag6
ag6
ag6
ag6
ag6
ag6
ag6
ag6
ag6
ag6
ag6
ag6
ag6
ag6
ag6
ag6
ag6
ag6
ag6
ag6
ag6
ag6
ag6
ag6
ag6
ag6
ag6
ag6
ag6
ag6
ag6
ag6
ag6
ag6
ag6
ag6
ag6
ag6
ag6
ag6
ag6
ag6
ag6
ag6
ag6
ag6
ag6
aa(lp8
g6
ag6
ag6
ag6
ag6
ag6
ag6
ag6
ag6
ag6
ag6
ag6
ag6
ag6
ag6
ag6
ag6
ag6
ag6
ag6
ag6
ag6
ag6
ag6
ag6
ag6
ag6
ag6
ag6
ag6
ag6
ag6
ag6
ag6
ag6
ag6
ag6
ag6
ag6
ag6
ag6
ag6
ag6
ag6
ag6
ag6
ag6
ag6
ag6
ag6
ag6
ag6
ag6
ag6
ag6
ag6
ag6
ag6
ag6
ag6
ag6
ag6
ag6
ag6
ag6
ag6
ag6
ag6
ag6
ag6
ag6
ag6
ag6
ag6
ag6
ag6
ag6
ag6
ag6
ag6
ag6
ag6
ag6
ag6
ag6
ag6
ag6
ag6
ag6
ag6
ag6
ag6
ag6
ag6
ag6
ag6
ag6
ag6
ag6
ag6
aa(lp9
g6
ag6
ag6
ag6
ag6
ag6
ag6
ag6
ag6
ag6
ag6
ag6
ag6
ag6
ag6
ag6
ag6
ag6
ag6
ag6
ag6
ag6
ag6
ag6
ag6
ag6
ag6
ag6
ag6
ag6
ag6
ag6
ag6
ag6
ag6
ag6
ag6
ag6
ag6
ag6
ag6
ag6
ag6
ag6
ag6
ag6
ag6
ag6
ag6
ag6
ag6
ag6
ag6
ag6
ag6
ag6
ag6
ag6
ag6
ag6
ag6
ag6
ag6
ag6
ag6
ag6
ag6
ag6
ag6
ag6
ag6
ag6
ag6
ag6
ag6
ag6
ag6
ag6
ag6
ag6
ag6
ag6
ag6
ag6
ag6
ag6
ag6
ag6
ag6
ag6
ag6
ag6
ag6
ag6
ag6
ag6
ag6
ag6
ag6
ag6
aa(lp10
g6
ag6
ag6
ag6
ag6
ag6
ag6
ag6
ag6
ag6
ag6
ag6
ag6
ag6
ag6
ag6
ag6
ag6
ag6
ag6
ag6
ag6
ag6
ag6
ag6
ag6
ag6
ag6
ag6
ag6
aS'#'
p11
ag11
ag11
ag11
ag11
ag11
ag11
ag11
ag11
ag11
ag11
ag6
ag11
ag11
ag11
ag6
ag11
ag11
ag11
ag11
ag11
ag6
ag11
ag11
ag11
ag11
ag11
ag6
ag11
ag11
ag11
ag11
ag11
ag11
ag11
ag11
ag11
ag11
ag11
ag6
ag6
ag6
ag6
ag6
ag6
ag6
ag6
ag6
ag6
ag6
ag6
ag6
ag6
ag6
ag6
ag6
ag6
ag6
ag6
ag6
ag6
ag6
ag6
ag6
ag6
ag6
ag6
ag6
ag6
ag6
aa(lp12
g6
ag6
ag6
ag6
ag6
ag6
ag6
ag6
ag6
ag6
ag6
ag6
ag6
ag6
ag6
ag6
ag6
ag6
ag6
ag6
ag6
ag6
ag6
ag6
ag6
ag6
ag6
ag6
ag6
ag11
aS'.'
p13
ag13
ag13
ag13
ag13
ag13
ag13
ag13
ag13
ag13
ag13
ag11
ag13
ag13
ag13
ag11
ag13
ag13
ag13
ag13
ag13
ag11
ag13
ag13
ag13
ag13
ag13
ag11
ag13
ag13
ag13
ag13
ag13
ag13
ag13
ag13
ag13
ag13
ag13
ag11
ag6
ag6
ag6
ag6
ag6
ag6
ag6
ag6
ag6
ag6
ag6
ag6
ag6
ag6
ag6
ag6
ag6
ag6
ag6
ag6
ag6
ag6
ag6
ag6
ag6
ag6
ag6
ag6
ag6
ag6
aa(lp14
g6
ag6
ag6
ag6
ag6
ag6
ag6
ag6
ag6
ag6
ag6
ag6
ag6
ag6
ag6
ag6
ag6
ag6
ag6
ag6
ag6
ag6
ag6
ag6
ag6
ag6
ag6
ag6
ag6
ag11
ag13
ag11
ag11
ag11
ag13
ag11
ag11
ag11
ag11
ag11
ag13
ag11
ag13
ag11
ag13
ag11
ag11
ag11
ag13
ag11
ag11
ag11
ag13
ag11
ag13
ag11
ag13
ag11
ag11
ag11
ag13
ag11
ag11
ag11
ag11
ag11
ag11
ag11
ag13
ag11
ag6
ag6
ag6
ag6
ag6
ag6
ag6
ag6
ag6
ag6
ag6
ag6
ag6
ag6
ag6
ag6
ag6
ag6
ag6
ag6
ag6
ag6
ag6
ag6
ag6
ag6
ag6
ag6
ag6
ag6
aa(lp15
g6
ag6
ag6
ag6
ag6
ag6
ag6
ag6
ag6
ag6
ag6
ag6
ag6
ag6
ag6
ag6
ag6
ag6
ag6
ag6
ag6
ag6
ag6
ag6
ag6
ag6
ag6
ag6
ag6
ag11
ag13
ag11
ag13
ag13
ag13
ag11
ag13
ag13
ag13
ag11
ag13
ag13
ag13
ag11
ag13
ag13
ag13
ag11
ag13
ag11
ag13
ag13
ag13
ag11
ag13
ag11
ag13
ag13
ag13
ag11
ag13
ag13
ag13
ag11
ag13
ag13
ag13
ag11
ag13
ag11
ag6
ag6
ag6
ag6
ag6
ag6
ag6
ag6
ag6
ag6
ag6
ag6
ag6
ag6
ag6
ag6
ag6
ag6
ag6
ag6
ag6
ag6
ag6
ag6
ag6
ag6
ag6
ag6
ag6
ag6
aa(lp16
g6
ag6
ag6
ag6
ag6
ag6
ag6
ag6
ag6
ag6
ag6
ag6
ag6
ag6
ag6
ag6
ag6
ag6
ag6
ag6
ag6
ag6
ag6
ag6
ag6
ag6
ag6
ag6
ag6
ag11
ag13
ag11
ag13
ag11
ag11
ag11
ag13
ag11
ag13
ag11
ag11
ag11
ag11
ag6
ag11
ag11
ag13
ag11
ag13
ag11
ag13
ag11
ag11
ag11
ag13
ag11
ag11
ag11
ag13
ag11
ag13
ag11
ag13
ag11
ag11
ag11
ag13
ag11
ag13
ag11
ag6
ag6
ag6
ag6
ag6
ag6
ag6
ag6
ag6
ag6
ag6
ag6
ag6
ag6
ag6
ag6
ag6
ag6
ag6
ag6
ag6
ag6
ag6
ag6
ag6
ag6
ag6
ag6
ag6
ag6
aa(lp17
g6
ag6
ag6
ag6
ag6
ag6
ag6
ag6
ag6
ag6
ag6
ag6
ag6
ag6
ag6
ag6
ag6
ag6
ag6
ag6
ag6
ag6
ag6
ag6
ag6
ag6
ag6
ag6
ag6
ag11
ag13
ag11
ag13
ag11
ag13
ag11
ag13
ag11
ag13
ag13
ag13
ag13
ag13
ag11
ag13
ag13
ag13
ag11
ag13
ag11
ag13
ag13
ag13
ag11
ag13
ag13
ag13
ag11
ag13
ag11
ag13
ag11
ag13
ag13
ag13
ag11
ag13
ag11
ag13
ag11
ag6
ag6
ag6
ag6
ag6
ag6
ag6
ag6
ag6
ag6
ag6
ag6
ag6
ag6
ag6
ag6
ag6
ag6
ag6
ag6
ag6
ag6
ag6
ag6
ag6
ag6
ag6
ag6
ag6
ag6
aa(lp18
g6
ag6
ag6
ag6
ag6
ag6
ag6
ag6
ag6
ag6
ag6
ag6
ag6
ag6
ag6
ag6
ag6
ag6
ag6
ag6
ag6
ag6
ag6
ag6
ag6
ag6
ag6
ag6
ag6
ag11
ag13
ag11
ag13
ag11
ag13
ag11
ag13
ag11
ag11
ag11
ag11
ag11
ag13
ag11
ag13
ag11
ag11
ag11
ag13
ag11
ag13
ag11
ag11
ag11
ag11
ag11
ag13
ag11
ag13
ag11
ag13
ag11
ag11
ag11
ag13
ag11
ag13
ag11
ag13
ag11
ag6
ag6
ag6
ag6
ag6
ag6
ag6
ag6
ag6
ag6
ag6
ag6
ag6
ag6
ag6
ag6
ag6
ag6
ag6
ag6
ag6
ag6
ag6
ag6
ag6
ag6
ag6
ag6
ag6
ag6
aa(lp19
g6
ag6
ag6
ag6
ag6
ag6
ag6
ag6
ag6
ag6
ag6
ag6
ag6
ag6
ag6
ag6
ag6
ag6
ag6
ag6
ag6
ag6
ag6
ag6
ag6
ag6
ag6
ag6
ag6
ag11
ag13
ag11
ag13
ag11
ag13
ag11
ag13
ag13
ag13
ag13
ag13
ag11
ag13
ag11
ag13
ag11
ag13
ag13
ag13
ag13
ag13
ag11
ag13
ag13
ag13
ag13
ag13
ag11
ag13
ag11
ag13
ag11
ag13
ag13
ag13
ag11
ag13
ag13
ag13
ag11
ag6
ag6
ag6
ag6
ag6
ag6
ag6
ag6
ag6
ag6
ag6
ag6
ag6
ag6
ag6
ag6
ag6
ag6
ag6
ag6
ag6
ag6
ag6
ag6
ag6
ag6
ag6
ag6
ag6
ag6
aa(lp20
g6
ag6
ag6
ag6
ag6
ag6
ag6
ag6
ag6
ag6
ag6
ag6
ag6
ag6
ag6
ag6
ag6
ag6
ag6
ag6
ag6
ag6
ag6
ag6
ag6
ag6
ag6
ag6
ag6
ag11
ag13
ag11
ag13
ag11
ag13
ag11
ag11
ag11
ag11
ag11
ag13
ag11
ag13
ag11
ag13
ag11
ag11
ag11
ag11
ag11
ag13
ag11
ag13
ag11
ag11
ag11
ag11
ag11
ag13
ag11
ag13
ag11
ag13
ag11
ag11
ag11
ag13
ag11
ag11
ag6
ag6
ag6
ag6
ag6
ag6
ag6
ag6
ag6
ag6
ag6
ag6
ag6
ag6
ag6
ag6
ag6
ag6
ag6
ag6
ag6
ag6
ag6
ag6
ag6
ag6
ag6
ag6
ag6
ag6
ag6
aa(lp21
g6
ag6
ag6
ag6
ag6
ag6
ag6
ag6
ag6
ag6
ag6
ag6
ag6
ag6
ag6
ag6
ag6
ag6
ag6
ag6
ag6
ag6
ag6
ag6
ag6
ag6
ag6
ag6
ag6
ag11
ag13
ag11
ag13
ag11
ag13
ag13
ag13
ag13
ag13
ag13
ag13
ag11
ag13
ag11
ag13
ag13
ag13
ag13
ag13
ag11
ag13
ag11
ag13
ag13
ag13
ag11
ag13
ag11
ag13
ag11
ag13
ag11
ag13
ag11
ag13
ag13
ag13
ag11
ag13
ag11
ag6
ag6
ag6
ag6
ag6
ag6
ag6
ag6
ag6
ag6
ag6
ag6
ag6
ag6
ag6
ag6
ag6
ag6
ag6
ag6
ag6
ag6
ag6
ag6
ag6
ag6
ag6
ag6
ag6
ag6
aa(lp22
g6
ag6
ag6
ag6
ag6
ag6
ag6
ag6
ag6
ag6
ag6
ag6
ag6
ag6
ag6
ag6
ag6
ag6
ag6
ag6
ag6
ag6
ag6
ag6
ag6
ag6
ag6
ag6
ag6
ag6
ag11
ag11
ag13
ag11
ag13
ag11
ag11
ag11
ag11
ag11
ag11
ag11
ag13
ag11
ag11
ag11
ag11
ag11
ag13
ag11
ag13
ag11
ag11
ag11
ag13
ag11
ag13
ag11
ag13
ag11
ag13
ag11
ag13
ag11
ag11
ag11
ag13
ag11
ag13
ag11
ag6
ag6
ag6
ag6
ag6
ag6
ag6
ag6
ag6
ag6
ag6
ag6
ag6
ag6
ag6
ag6
ag6
ag6
ag6
ag6
ag6
ag6
ag6
ag6
ag6
ag6
ag6
ag6
ag6
ag6
aa(lp23
g6
ag6
ag6
ag6
ag6
ag6
ag6
ag6
ag6
ag6
ag6
ag6
ag6
ag6
ag6
ag6
ag6
ag6
ag6
ag6
ag6
ag6
ag6
ag6
ag6
ag6
ag6
ag6
ag6
ag11
ag13
ag13
ag13
ag11
ag13
ag13
ag13
ag11
ag13
ag13
ag13
ag13
ag13
ag11
ag13
ag13
ag13
ag13
ag13
ag11
ag13
ag11
ag13
ag13
ag13
ag11
ag13
ag13
ag13
ag11
ag13
ag11
ag13
ag13
ag13
ag11
ag13
ag13
ag13
ag11
ag6
ag6
ag6
ag6
ag6
ag6
ag6
ag6
ag6
ag6
ag6
ag6
ag6
ag6
ag6
ag6
ag6
ag6
ag6
ag6
ag6
ag6
ag6
ag6
ag6
ag6
ag6
ag6
ag6
ag6
aa(lp24
g6
ag6
ag6
ag6
ag6
ag6
ag6
ag6
ag6
ag6
ag6
ag6
ag6
ag6
ag6
ag6
ag6
ag6
ag6
ag6
ag6
ag6
ag6
ag6
ag6
ag6
ag6
ag6
ag6
ag11
ag13
ag11
ag11
ag6
ag11
ag11
ag13
ag11
ag13
ag11
ag13
ag11
ag11
ag11
ag13
ag11
ag11
ag11
ag11
ag11
ag11
ag11
ag13
ag11
ag11
ag11
ag13
ag11
ag11
ag11
ag11
ag11
ag11
ag11
ag13
ag11
ag11
ag11
ag13
ag11
ag6
ag6
ag6
ag6
ag6
ag6
ag6
ag6
ag6
ag6
ag6
ag6
ag6
ag6
ag6
ag6
ag6
ag6
ag6
ag6
ag6
ag6
ag6
ag6
ag6
ag6
ag6
ag6
ag6
ag6
aa(lp25
g6
ag6
ag6
ag6
ag6
ag6
ag6
ag6
ag6
ag6
ag6
ag6
ag6
ag6
ag6
ag6
ag6
ag6
ag6
ag6
ag6
ag6
ag6
ag6
ag6
ag6
ag6
ag6
ag6
ag11
ag13
ag13
ag13
ag11
ag13
ag11
ag13
ag11
ag13
ag11
ag13
ag11
ag13
ag13
ag13
ag11
ag13
ag13
ag13
ag13
ag13
ag11
ag13
ag13
ag13
ag11
ag13
ag11
ag13
ag13
ag13
ag13
ag13
ag11
ag13
ag11
ag13
ag13
ag13
ag11
ag6
ag6
ag6
ag6
ag6
ag6
ag6
ag6
ag6
ag6
ag6
ag6
ag6
ag6
ag6
ag6
ag6
ag6
ag6
ag6
ag6
ag6
ag6
ag6
ag6
ag6
ag6
ag6
ag6
ag6
aa(lp26
g6
ag6
ag6
ag6
ag6
ag6
ag6
ag6
ag6
ag6
ag6
ag6
ag6
ag6
ag6
ag6
ag6
ag6
ag6
ag6
ag6
ag6
ag6
ag6
ag6
ag6
ag6
ag6
ag6
ag11
ag13
ag11
ag13
ag11
ag13
ag11
ag13
ag11
ag13
ag11
ag13
ag11
ag13
ag11
ag11
ag11
ag13
ag11
ag11
ag11
ag13
ag11
ag11
ag11
ag13
ag11
ag13
ag11
ag13
ag11
ag11
ag11
ag13
ag11
ag13
ag11
ag11
ag11
ag11
ag6
ag6
ag6
ag6
ag6
ag6
ag6
ag6
ag6
ag6
ag6
ag6
ag6
ag6
ag6
ag6
ag6
ag6
ag6
ag6
ag6
ag6
ag6
ag6
ag6
ag6
ag6
ag6
ag6
ag6
ag6
aa(lp27
g6
ag6
ag6
ag6
ag6
ag6
ag6
ag6
ag6
ag6
ag6
ag6
ag6
ag6
ag6
ag6
ag6
ag6
ag6
ag6
ag6
ag6
ag6
ag6
ag6
ag6
ag6
ag6
ag6
ag11
ag13
ag11
ag13
ag11
ag13
ag11
ag13
ag11
ag13
ag11
ag13
ag11
ag13
ag13
ag13
ag13
ag13
ag11
ag13
ag13
ag13
ag13
ag13
ag13
ag13
ag11
ag13
ag13
ag13
ag11
ag13
ag11
ag13
ag11
ag13
ag13
ag13
ag13
ag13
ag11
ag6
ag6
ag6
ag6
ag6
ag6
ag6
ag6
ag6
ag6
ag6
ag6
ag6
ag6
ag6
ag6
ag6
ag6
ag6
ag6
ag6
ag6
ag6
ag6
ag6
ag6
ag6
ag6
ag6
ag6
aa(lp28
g6
ag6
ag6
ag6
ag6
ag6
ag6
ag6
ag6
ag6
ag6
ag6
ag6
ag6
ag6
ag6
ag6
ag6
ag6
ag6
ag6
ag6
ag6
ag6
ag6
ag6
ag6
ag6
ag6
ag6
ag11
ag11
ag13
ag11
ag13
ag11
ag13
ag11
ag13
ag11
ag11
ag11
ag11
ag11
ag11
ag11
ag13
ag11
ag11
ag11
ag11
ag11
ag11
ag11
ag11
ag11
ag11
ag11
ag11
ag11
ag13
ag11
ag13
ag11
ag13
ag11
ag11
ag11
ag13
ag11
ag6
ag6
ag6
ag6
ag6
ag6
ag6
ag6
ag6
ag6
ag6
ag6
ag6
ag6
ag6
ag6
ag6
ag6
ag6
ag6
ag6
ag6
ag6
ag6
ag6
ag6
ag6
ag6
ag6
ag6
aa(lp29
g6
ag6
ag6
ag6
ag6
ag6
ag6
ag6
ag6
ag6
ag6
ag6
ag6
ag6
ag6
ag6
ag6
ag6
ag6
ag6
ag6
ag6
ag6
ag6
ag6
ag6
ag6
ag6
ag6
ag11
ag13
ag13
ag13
ag11
ag13
ag13
ag13
ag11
ag13
ag13
ag13
ag13
ag13
ag13
ag13
ag13
ag13
ag11
ag13
ag13
ag13
ag11
ag13
ag13
ag13
ag13
ag13
ag11
ag13
ag13
ag13
ag11
ag13
ag11
ag13
ag13
ag13
ag11
ag13
ag11
ag6
ag6
ag6
ag6
ag6
ag6
ag6
ag6
ag6
ag6
ag6
ag6
ag6
ag6
ag6
ag6
ag6
ag6
ag6
ag6
ag6
ag6
ag6
ag6
ag6
ag6
ag6
ag6
ag6
ag6
aa(lp30
g6
ag6
ag6
ag6
ag6
ag6
ag6
ag6
ag6
ag6
ag6
ag6
ag6
ag6
ag6
ag6
ag6
ag6
ag6
ag6
ag6
ag6
ag6
ag6
ag6
ag6
ag6
ag6
ag6
ag11
ag13
ag11
ag11
ag6
ag11
ag11
ag11
ag11
ag11
ag11
ag11
ag11
ag11
ag11
ag11
ag11
ag11
ag11
ag13
ag11
ag13
ag11
ag13
ag11
ag11
ag11
ag11
ag11
ag13
ag11
ag13
ag11
ag13
ag11
ag11
ag11
ag11
ag11
ag13
ag11
ag6
ag6
ag6
ag6
ag6
ag6
ag6
ag6
ag6
ag6
ag6
ag6
ag6
ag6
ag6
ag6
ag6
ag6
ag6
ag6
ag6
ag6
ag6
ag6
ag6
ag6
ag6
ag6
ag6
ag6
aa(lp31
g6
ag6
ag6
ag6
ag6
ag6
ag6
ag6
ag6
ag6
ag6
ag6
ag6
ag6
ag6
ag6
ag6
ag6
ag6
ag6
ag6
ag6
ag6
ag6
ag6
ag6
ag6
ag6
ag6
ag11
ag13
ag13
ag13
ag11
ag13
ag13
ag13
ag13
ag13
ag11
ag13
ag13
ag13
ag13
ag13
ag11
ag13
ag13
ag13
ag11
ag13
ag11
ag13
ag13
ag13
ag13
ag13
ag13
ag13
ag11
ag13
ag13
ag13
ag11
ag13
ag13
ag13
ag13
ag13
ag11
ag6
ag6
ag6
ag6
ag6
ag6
ag6
ag6
ag6
ag6
ag6
ag6
ag6
ag6
ag6
ag6
ag6
ag6
ag6
ag6
ag6
ag6
ag6
ag6
ag6
ag6
ag6
ag6
ag6
ag6
aa(lp32
g6
ag6
ag6
ag6
ag6
ag6
ag6
ag6
ag6
ag6
ag6
ag6
ag6
ag6
ag6
ag6
ag6
ag6
ag6
ag6
ag6
ag6
ag6
ag6
ag6
ag6
ag6
ag6
ag6
ag11
ag13
ag11
ag13
ag11
ag13
ag11
ag11
ag11
ag13
ag11
ag13
ag11
ag11
ag11
ag13
ag11
ag13
ag11
ag11
ag11
ag13
ag11
ag13
ag11
ag11
ag11
ag11
ag11
ag11
ag6
ag11
ag11
ag11
ag11
ag13
ag11
ag11
ag11
ag13
ag11
ag6
ag6
ag6
ag6
ag6
ag6
ag6
ag6
ag6
ag6
ag6
ag6
ag6
ag6
ag6
ag6
ag6
ag6
ag6
ag6
ag6
ag6
ag6
ag6
ag6
ag6
ag6
ag6
ag6
ag6
aa(lp33
g6
ag6
ag6
ag6
ag6
ag6
ag6
ag6
ag6
ag6
ag6
ag6
ag6
ag6
ag6
ag6
ag6
ag6
ag6
ag6
ag6
ag6
ag6
ag6
ag6
ag6
ag6
ag6
ag6
ag11
ag13
ag11
ag13
ag13
ag13
ag11
ag13
ag11
ag13
ag11
ag13
ag11
ag13
ag11
ag13
ag11
ag13
ag13
ag13
ag11
aS'o'
p34
ag11
ag13
ag13
ag13
ag11
ag13
ag13
ag13
ag11
ag13
ag13
ag13
ag11
ag13
ag13
ag13
ag11
ag13
ag11
ag6
ag6
ag6
ag6
ag6
ag6
ag6
ag6
ag6
ag6
ag6
ag6
ag6
ag6
ag6
ag6
ag6
ag6
ag6
ag6
ag6
ag6
ag6
ag6
ag6
ag6
ag6
ag6
ag6
ag6
aa(lp35
g6
ag6
ag6
ag6
ag6
ag6
ag6
ag6
ag6
ag6
ag6
ag6
ag6
ag6
ag6
ag6
ag6
ag6
ag6
ag6
ag6
ag6
ag6
ag6
ag6
ag6
ag6
ag6
ag6
ag11
ag13
ag11
ag11
ag11
ag11
ag11
ag13
ag11
ag13
ag11
ag13
ag11
ag13
ag11
ag13
ag11
ag11
ag11
ag13
ag11
ag11
ag11
ag11
ag11
ag13
ag11
ag13
ag11
ag13
ag11
ag13
ag11
ag11
ag11
ag13
ag11
ag13
ag11
ag13
ag11
ag6
ag6
ag6
ag6
ag6
ag6
ag6
ag6
ag6
ag6
ag6
ag6
ag6
ag6
ag6
ag6
ag6
ag6
ag6
ag6
ag6
ag6
ag6
ag6
ag6
ag6
ag6
ag6
ag6
ag6
aa(lp36
g6
ag6
ag6
ag6
ag6
ag6
ag6
ag6
ag6
ag6
ag6
ag6
ag6
ag6
ag6
ag6
ag6
ag6
ag6
ag6
ag6
ag6
ag6
ag6
ag6
ag6
ag6
ag6
ag6
ag11
ag13
ag13
ag13
ag13
ag13
ag13
ag13
ag11
ag13
ag11
ag13
ag13
ag13
ag11
ag13
ag13
ag13
ag13
ag13
ag11
ag13
ag13
ag13
ag13
ag13
ag13
ag13
ag11
ag13
ag11
ag13
ag11
ag13
ag13
ag13
ag11
ag13
ag11
ag13
ag11
ag6
ag6
ag6
ag6
ag6
ag6
ag6
ag6
ag6
ag6
ag6
ag6
ag6
ag6
ag6
ag6
ag6
ag6
ag6
ag6
ag6
ag6
ag6
ag6
ag6
ag6
ag6
ag6
ag6
ag6
aa(lp37
g6
ag6
ag6
ag6
ag6
ag6
ag6
ag6
ag6
ag6
ag6
ag6
ag6
ag6
ag6
ag6
ag6
ag6
ag6
ag6
ag6
ag6
ag6
ag6
ag6
ag6
ag6
ag6
ag6
ag6
ag11
ag11
ag11
ag11
ag11
ag11
ag13
ag11
ag13
ag11
ag11
ag11
ag13
ag11
ag11
ag11
ag11
ag11
ag11
ag11
ag11
ag11
ag11
ag11
ag11
ag11
ag11
ag11
ag13
ag11
ag13
ag11
ag13
ag11
ag11
ag11
ag13
ag11
ag13
ag11
ag6
ag6
ag6
ag6
ag6
ag6
ag6
ag6
ag6
ag6
ag6
ag6
ag6
ag6
ag6
ag6
ag6
ag6
ag6
ag6
ag6
ag6
ag6
ag6
ag6
ag6
ag6
ag6
ag6
ag6
aa(lp38
g6
ag6
ag6
ag6
ag6
ag6
ag6
ag6
ag6
ag6
ag6
ag6
ag6
ag6
ag6
ag6
ag6
ag6
ag6
ag6
ag6
ag6
ag6
ag6
ag6
ag6
ag6
ag6
ag6
ag11
ag13
ag13
ag13
ag11
ag13
ag13
ag13
ag11
ag13
ag11
ag13
ag13
ag13
ag11
ag13
ag13
ag13
ag13
ag13
ag13
ag13
ag13
ag13
ag13
ag13
ag13
ag13
ag11
ag13
ag11
ag13
ag13
ag13
ag11
ag13
ag13
ag13
ag11
ag13
ag11
ag6
ag6
ag6
ag6
ag6
ag6
ag6
ag6
ag6
ag6
ag6
ag6
ag6
ag6
ag6
ag6
ag6
ag6
ag6
ag6
ag6
ag6
ag6
ag6
ag6
ag6
ag6
ag6
ag6
ag6
aa(lp39
g6
ag6
ag6
ag6
ag6
ag6
ag6
ag6
ag6
ag6
ag6
ag6
ag6
ag6
ag6
ag6
ag6
ag6
ag6
ag6
ag6
ag6
ag6
ag6
ag6
ag6
ag6
ag6
ag6
ag11
ag13
ag11
ag11
ag11
ag13
ag11
ag11
ag11
ag13
ag11
ag13
ag11
ag11
ag11
ag11
ag11
ag11
ag11
ag11
ag11
ag13
ag11
ag11
ag11
ag11
ag11
ag13
ag11
ag13
ag11
ag11
ag11
ag11
ag11
ag13
ag11
ag11
ag11
ag13
ag11
ag6
ag6
ag6
ag6
ag6
ag6
ag6
ag6
ag6
ag6
ag6
ag6
ag6
ag6
ag6
ag6
ag6
ag6
ag6
ag6
ag6
ag6
ag6
ag6
ag6
ag6
ag6
ag6
ag6
ag6
aa(lp40
g6
ag6
ag6
ag6
ag6
ag6
ag6
ag6
ag6
ag6
ag6
ag6
ag6
ag6
ag6
ag6
ag6
ag6
ag6
ag6
ag6
ag6
ag6
ag6
ag6
ag6
ag6
ag6
ag6
ag11
ag13
ag11
ag13
ag13
ag13
ag11
ag13
ag13
ag13
ag11
ag13
ag13
ag13
ag13
ag13
ag13
ag13
ag13
ag13
ag13
ag13
ag11
ag13
ag13
ag13
ag13
ag13
ag11
ag13
ag13
ag13
ag13
ag13
ag11
ag13
ag11
ag13
ag13
ag13
ag11
ag6
ag6
ag6
ag6
ag6
ag6
ag6
ag6
ag6
ag6
ag6
ag6
ag6
ag6
ag6
ag6
ag6
ag6
ag6
ag6
ag6
ag6
ag6
ag6
ag6
ag6
ag6
ag6
ag6
ag6
aa(lp41
g6
ag6
ag6
ag6
ag6
ag6
ag6
ag6
ag6
ag6
ag6
ag6
ag6
ag6
ag6
ag6
ag6
ag6
ag6
ag6
ag6
ag6
ag6
ag6
ag6
ag6
ag6
ag6
ag6
ag11
ag13
ag11
ag13
ag11
ag11
ag11
ag13
ag11
ag11
ag11
ag11
ag11
ag11
ag11
ag11
ag11
ag11
ag11
ag11
ag11
ag11
ag11
ag13
ag11
ag11
ag11
ag11
ag11
ag11
ag11
ag11
ag11
ag13
ag11
ag13
ag11
ag11
ag11
ag13
ag11
ag6
ag6
ag6
ag6
ag6
ag6
ag6
ag6
ag6
ag6
ag6
ag6
ag6
ag6
ag6
ag6
ag6
ag6
ag6
ag6
ag6
ag6
ag6
ag6
ag6
ag6
ag6
ag6
ag6
ag6
aa(lp42
g6
ag6
ag6
ag6
ag6
ag6
ag6
ag6
ag6
ag6
ag6
ag6
ag6
ag6
ag6
ag6
ag6
ag6
ag6
ag6
ag6
ag6
ag6
ag6
ag6
ag6
ag6
ag6
ag6
ag11
ag13
ag13
ag13
ag13
ag13
ag11
ag13
ag13
ag13
ag13
ag13
ag11
ag13
ag13
ag13
ag13
ag13
ag11
ag13
ag13
ag13
ag11
ag13
ag13
ag13
ag13
ag13
ag13
ag13
ag11
ag13
ag13
ag13
ag11
ag13
ag13
ag13
ag11
ag13
ag11
ag6
ag6
ag6
ag6
ag6
ag6
ag6
ag6
ag6
ag6
ag6
ag6
ag6
ag6
ag6
ag6
ag6
ag6
ag6
ag6
ag6
ag6
ag6
ag6
ag6
ag6
ag6
ag6
ag6
ag6
aa(lp43
g6
ag6
ag6
ag6
ag6
ag6
ag6
ag6
ag6
ag6
ag6
ag6
ag6
ag6
ag6
ag6
ag6
ag6
ag6
ag6
ag6
ag6
ag6
ag6
ag6
ag6
ag6
ag6
ag6
ag11
ag13
ag11
ag11
ag11
ag11
ag11
ag11
ag11
ag13
ag11
ag13
ag11
ag13
ag11
ag11
ag11
ag13
ag11
ag11
ag11
ag13
ag11
ag11
ag11
ag11
ag11
ag11
ag11
ag13
ag11
ag13
ag11
ag11
ag11
ag13
ag11
ag13
ag11
ag11
ag6
ag6
ag6
ag6
ag6
ag6
ag6
ag6
ag6
ag6
ag6
ag6
ag6
ag6
ag6
ag6
ag6
ag6
ag6
ag6
ag6
ag6
ag6
ag6
ag6
ag6
ag6
ag6
ag6
ag6
ag6
aa(lp44
g6
ag6
ag6
ag6
ag6
ag6
ag6
ag6
ag6
ag6
ag6
ag6
ag6
ag6
ag6
ag6
ag6
ag6
ag6
ag6
ag6
ag6
ag6
ag6
ag6
ag6
ag6
ag6
ag6
ag11
ag13
ag13
ag13
ag11
ag13
ag13
ag13
ag13
ag13
ag11
ag13
ag13
ag13
ag11
ag13
ag13
ag13
ag13
ag13
ag13
ag13
ag11
ag13
ag13
ag13
ag13
ag13
ag11
ag13
ag11
ag13
ag11
ag13
ag13
ag13
ag11
ag13
ag13
ag13
ag11
ag6
ag6
ag6
ag6
ag6
ag6
ag6
ag6
ag6
ag6
ag6
ag6
ag6
ag6
ag6
ag6
ag6
ag6
ag6
ag6
ag6
ag6
ag6
ag6
ag6
ag6
ag6
ag6
ag6
ag6
aa(lp45
g6
ag6
ag6
ag6
ag6
ag6
ag6
ag6
ag6
ag6
ag6
ag6
ag6
ag6
ag6
ag6
ag6
ag6
ag6
ag6
ag6
ag6
ag6
ag6
ag6
ag6
ag6
ag6
ag6
ag11
ag13
ag11
ag11
ag11
ag13
ag11
ag11
ag11
ag11
ag11
ag11
ag11
ag11
ag11
ag13
ag11
ag11
ag11
ag11
ag11
ag11
ag11
ag13
ag11
ag13
ag11
ag11
ag11
ag13
ag11
ag13
ag11
ag11
ag11
ag11
ag11
ag11
ag11
ag13
ag11
ag6
ag6
ag6
ag6
ag6
ag6
ag6
ag6
ag6
ag6
ag6
ag6
ag6
ag6
ag6
ag6
ag6
ag6
ag6
ag6
ag6
ag6
ag6
ag6
ag6
ag6
ag6
ag6
ag6
ag6
aa(lp46
g6
ag6
ag6
ag6
ag6
ag6
ag6
ag6
ag6
ag6
ag6
ag6
ag6
ag6
ag6
ag6
ag6
ag6
ag6
ag6
ag6
ag6
ag6
ag6
ag6
ag6
ag6
ag6
ag6
ag11
ag13
ag11
ag13
ag13
ag13
ag11
ag13
ag13
ag13
ag13
ag13
ag11
ag13
ag13
ag13
ag11
ag13
ag13
ag13
ag13
ag13
ag13
ag13
ag11
ag13
ag11
ag13
ag13
ag13
ag11
ag13
ag13
ag13
ag11
ag13
ag13
ag13
ag13
ag13
ag11
ag6
ag6
ag6
ag6
ag6
ag6
ag6
ag6
ag6
ag6
ag6
ag6
ag6
ag6
ag6
ag6
ag6
ag6
ag6
ag6
ag6
ag6
ag6
ag6
ag6
ag6
ag6
ag6
ag6
ag6
aa(lp47
g6
ag6
ag6
ag6
ag6
ag6
ag6
ag6
ag6
ag6
ag6
ag6
ag6
ag6
ag6
ag6
ag6
ag6
ag6
ag6
ag6
ag6
ag6
ag6
ag6
ag6
ag6
ag6
ag6
ag11
ag13
ag11
ag13
ag11
ag11
ag11
ag13
ag11
ag11
ag11
ag13
ag11
ag11
ag11
ag11
ag11
ag13
ag11
ag11
ag11
ag11
ag11
ag11
ag11
ag13
ag11
ag13
ag11
ag11
ag11
ag11
ag11
ag13
ag11
ag13
ag11
ag11
ag11
ag13
ag11
ag6
ag6
ag6
ag6
ag6
ag6
ag6
ag6
ag6
ag6
ag6
ag6
ag6
ag6
ag6
ag6
ag6
ag6
ag6
ag6
ag6
ag6
ag6
ag6
ag6
ag6
ag6
ag6
ag6
ag6
aa(lp48
g6
ag6
ag6
ag6
ag6
ag6
ag6
ag6
ag6
ag6
ag6
ag6
ag6
ag6
ag6
ag6
ag6
ag6
ag6
ag6
ag6
ag6
ag6
ag6
ag6
ag6
ag6
ag6
ag6
ag11
ag13
ag11
ag13
ag13
ag13
ag11
ag13
ag13
ag13
ag11
ag13
ag11
ag13
ag13
ag13
ag13
ag13
ag11
ag13
ag11
ag13
ag13
ag13
ag13
ag13
ag11
ag13
ag11
ag13
ag13
ag13
ag11
ag13
ag11
ag13
ag11
ag13
ag13
ag13
ag11
ag6
ag6
ag6
ag6
ag6
ag6
ag6
ag6
ag6
ag6
ag6
ag6
ag6
ag6
ag6
ag6
ag6
ag6
ag6
ag6
ag6
ag6
ag6
ag6
ag6
ag6
ag6
ag6
ag6
ag6
aa(lp49
g6
ag6
ag6
ag6
ag6
ag6
ag6
ag6
ag6
ag6
ag6
ag6
ag6
ag6
ag6
ag6
ag6
ag6
ag6
ag6
ag6
ag6
ag6
ag6
ag6
ag6
ag6
ag6
ag6
ag11
ag13
ag11
ag11
ag11
ag13
ag11
ag11
ag11
ag13
ag11
ag13
ag11
ag13
ag11
ag11
ag11
ag11
ag11
ag13
ag11
ag13
ag11
ag11
ag11
ag13
ag11
ag13
ag11
ag13
ag11
ag11
ag11
ag13
ag11
ag13
ag11
ag11
ag11
ag13
ag11
ag6
ag6
ag6
ag6
ag6
ag6
ag6
ag6
ag6
ag6
ag6
ag6
ag6
ag6
ag6
ag6
ag6
ag6
ag6
ag6
ag6
ag6
ag6
ag6
ag6
ag6
ag6
ag6
ag6
ag6
aa(lp50
g6
ag6
ag6
ag6
ag6
ag6
ag6
ag6
ag6
ag6
ag6
ag6
ag6
ag6
ag6
ag6
ag6
ag6
ag6
ag6
ag6
ag6
ag6
ag6
ag6
ag6
ag6
ag6
ag6
ag11
ag13
ag13
ag13
ag11
ag13
ag13
ag13
ag13
ag13
ag11
aS'D'
p51
ag11
ag13
ag11
ag13
ag13
ag13
ag11
ag13
ag11
ag13
ag11
ag13
ag13
ag13
ag11
ag13
ag11
ag13
ag13
ag13
ag13
ag13
ag11
ag13
ag13
ag13
ag11
ag13
ag11
ag6
ag6
ag6
ag6
ag6
ag6
ag6
ag6
ag6
ag6
ag6
ag6
ag6
ag6
ag6
ag6
ag6
ag6
ag6
ag6
ag6
ag6
ag6
ag6
ag6
ag6
ag6
ag6
ag6
ag6
aa(lp52
g6
ag6
ag6
ag6
ag6
ag6
ag6
ag6
ag6
ag6
ag6
ag6
ag6
ag6
ag6
ag6
ag6
ag6
ag6
ag6
ag6
ag6
ag6
ag6
ag6
ag6
ag6
ag6
ag6
ag6
ag11
ag11
ag13
ag11
ag11
ag11
ag11
ag11
ag11
ag11
ag13
ag11
ag13
ag11
ag13
ag11
ag13
ag11
ag13
ag11
ag13
ag11
ag11
ag11
ag11
ag11
ag13
ag11
ag13
ag11
ag11
ag11
ag11
ag11
ag11
ag11
ag13
ag11
ag13
ag11
ag6
ag6
ag6
ag6
ag6
ag6
ag6
ag6
ag6
ag6
ag6
ag6
ag6
ag6
ag6
ag6
ag6
ag6
ag6
ag6
ag6
ag6
ag6
ag6
ag6
ag6
ag6
ag6
ag6
ag6
aa(lp53
g6
ag6
ag6
ag6
ag6
ag6
ag6
ag6
ag6
ag6
ag6
ag6
ag6
ag6
ag6
ag6
ag6
ag6
ag6
ag6
ag6
ag6
ag6
ag6
ag6
ag6
ag6
ag6
ag6
ag11
ag13
ag13
ag13
ag13
ag13
ag13
ag13
ag13
aS'X'
p54
ag11
ag13
ag13
ag13
ag13
ag13
ag11
ag13
ag13
ag13
ag11
ag13
ag13
ag13
ag13
ag13
ag13
ag13
ag11
ag13
ag13
ag13
ag13
ag13
ag13
ag13
ag13
ag13
ag11
ag13
ag11
ag6
ag6
ag6
ag6
ag6
ag6
ag6
ag6
ag6
ag6
ag6
ag6
ag6
ag6
ag6
ag6
ag6
ag6
ag6
ag6
ag6
ag6
ag6
ag6
ag6
ag6
ag6
ag6
ag6
ag6
aa(lp55
g6
ag6
ag6
ag6
ag6
ag6
ag6
ag6
ag6
ag6
ag6
ag6
ag6
ag6
ag6
ag6
ag6
ag6
ag6
ag6
ag6
ag6
ag6
ag6
ag6
ag6
ag6
ag6
ag6
ag6
ag11
ag11
ag11
ag11
ag11
ag11
ag11
ag11
ag11
ag6
ag11
ag11
ag11
ag11
ag11
ag6
ag11
ag11
ag11
ag6
ag11
ag11
ag11
ag11
ag11
ag11
ag11
ag6
ag11
ag11
ag11
ag11
ag11
ag11
ag11
ag11
ag11
ag6
ag11
ag6
ag6
ag6
ag6
ag6
ag6
ag6
ag6
ag6
ag6
ag6
ag6
ag6
ag6
ag6
ag6
ag6
ag6
ag6
ag6
ag6
ag6
ag6
ag6
ag6
ag6
ag6
ag6
ag6
ag6
ag6
aa(lp56
g6
ag6
ag6
ag6
ag6
ag6
ag6
ag6
ag6
ag6
ag6
ag6
ag6
ag6
ag6
ag6
ag6
ag6
ag6
ag6
ag6
ag6
ag6
ag6
ag6
ag6
ag6
ag6
ag6
ag6
ag6
ag6
ag6
ag6
ag6
ag6
ag6
ag6
ag6
ag6
ag6
ag6
ag6
ag6
ag6
ag6
ag6
ag6
ag6
ag6
ag6
ag6
ag6
ag6
ag6
ag6
ag6
ag6
ag6
ag6
ag6
ag6
ag6
ag6
ag6
ag6
ag6
ag6
ag6
ag6
ag6
ag6
ag6
ag6
ag6
ag6
ag6
ag6
ag6
ag6
ag6
ag6
ag6
ag6
ag6
ag6
ag6
ag6
ag6
ag6
ag6
ag6
ag6
ag6
ag6
ag6
ag6
ag6
ag6
ag6
aa(lp57
g6
ag6
ag6
ag6
ag6
ag6
ag6
ag6
ag6
ag6
ag6
ag6
ag6
ag6
ag6
ag6
ag6
ag6
ag6
ag6
ag6
ag6
ag6
ag6
ag6
ag6
ag6
ag6
ag6
ag6
ag6
ag6
ag6
ag6
ag6
ag6
ag6
ag6
ag6
ag6
ag6
ag6
ag6
ag6
ag6
ag6
ag6
ag6
ag6
ag6
ag6
ag6
ag6
ag6
ag6
ag6
ag6
ag6
ag6
ag6
ag6
ag6
ag6
ag6
ag6
ag6
ag6
ag6
ag6
ag6
ag6
ag6
ag6
ag6
ag6
ag6
ag6
ag6
ag6
ag6
ag6
ag6
ag6
ag6
ag6
ag6
ag6
ag6
ag6
ag6
ag6
ag6
ag6
ag6
ag6
ag6
ag6
ag6
ag6
ag6
aa(lp58
g6
ag6
ag6
ag6
ag6
ag6
ag6
ag6
ag6
ag6
ag6
ag6
ag6
ag6
ag6
ag6
ag6
ag6
ag6
ag6
ag6
ag6
ag6
ag6
ag6
ag6
ag6
ag6
ag6
ag6
ag6
ag6
ag6
ag6
ag6
ag6
ag6
ag6
ag6
ag6
ag6
ag6
ag6
ag6
ag6
ag6
ag6
ag6
ag6
ag6
ag6
ag6
ag6
ag6
ag6
ag6
ag6
ag6
ag6
ag6
ag6
ag6
ag6
ag6
ag6
ag6
ag6
ag6
ag6
ag6
ag6
ag6
ag6
ag6
ag6
ag6
ag6
ag6
ag6
ag6
ag6
ag6
ag6
ag6
ag6
ag6
ag6
ag6
ag6
ag6
ag6
ag6
ag6
ag6
ag6
ag6
ag6
ag6
ag6
ag6
aa(lp59
g6
ag6
ag6
ag6
ag6
ag6
ag6
ag6
ag6
ag6
ag6
ag6
ag6
ag6
ag6
ag6
ag6
ag6
ag6
ag6
ag6
ag6
ag6
ag6
ag6
ag6
ag6
ag6
ag6
ag6
ag6
ag6
ag6
ag6
ag6
ag6
ag6
ag6
ag6
ag6
ag6
ag6
ag6
ag6
ag6
ag6
ag6
ag6
ag6
ag6
ag6
ag6
ag6
ag6
ag6
ag6
ag6
ag6
ag6
ag6
ag6
ag6
ag6
ag6
ag6
ag6
ag6
ag6
ag6
ag6
ag6
ag6
ag6
ag6
ag6
ag6
ag6
ag6
ag6
ag6
ag6
ag6
ag6
ag6
ag6
ag6
ag6
ag6
ag6
ag6
ag6
ag6
ag6
ag6
ag6
ag6
ag6
ag6
ag6
ag6
aa(lp60
g6
ag6
ag6
ag6
ag6
ag6
ag6
ag6
ag6
ag6
ag6
ag6
ag6
ag6
ag6
ag6
ag6
ag6
ag6
ag6
ag6
ag6
ag6
ag6
ag6
ag6
ag6
ag6
ag6
ag6
ag6
ag6
ag6
ag6
ag6
ag6
ag6
ag6
ag6
ag6
ag6
ag6
ag6
ag6
ag6
ag6
ag6
ag6
ag6
ag6
ag6
ag6
ag6
ag6
ag6
ag6
ag6
ag6
ag6
ag6
ag6
ag6
ag6
ag6
ag6
ag6
ag6
ag6
ag6
ag6
ag6
ag6
ag6
ag6
ag6
ag6
ag6
ag6
ag6
ag6
ag6
ag6
ag6
ag6
ag6
ag6
ag6
ag6
ag6
ag6
ag6
ag6
ag6
ag6
ag6
ag6
ag6
ag6
ag6
ag6
aasS'columns'
p61
I100
sb.